; Function Attrs: mustprogress uwtable
define hidden void @_ZN13pdecl_manager8del_declEP5pdecl(ptr noundef nonnull align 8 dereferenceable(192) %this, ptr noundef %p) local_unnamed_addr #3 align 2 {
entry:
  %ref.tmp.i.i = alloca %"struct.obj_map<sort, psort *>::key_data", align 8
  %_p = alloca ptr, align 8
  %vtable = load ptr, ptr %p, align 8
  %0 = load ptr, ptr %vtable, align 8
  %call = tail call noundef zeroext i1 %0(ptr noundef nonnull align 8 dereferenceable(20) %p)
  br i1 %call, label %if.then, label %if.end7

if.then:                                          ; preds = %entry
  store ptr %p, ptr %_p, align 8
  %vtable2 = load ptr, ptr %p, align 8
  %vfn3 = getelementptr inbounds i8, ptr %vtable2, i64 80
  %1 = load ptr, ptr %vfn3, align 8
  %call4 = tail call noundef zeroext i1 %1(ptr noundef nonnull align 8 dereferenceable(32) %p)
  br i1 %call4, label %if.then5, label %if.else

if.then5:                                         ; preds = %if.then
  %m_sort.i = getelementptr inbounds i8, ptr %p, i64 32
  %2 = load ptr, ptr %m_sort.i, align 8
  %m_sort2psort = getelementptr inbounds i8, ptr %this, i64 32
  call void @llvm.lifetime.start.p0(i64 16, ptr nonnull %ref.tmp.i.i)
  store ptr %2, ptr %ref.tmp.i.i, align 8
  %m_value.i.i.i = getelementptr inbounds i8, ptr %ref.tmp.i.i, i64 8
  store ptr null, ptr %m_value.i.i.i, align 8
  call void @_ZN14core_hashtableIN7obj_mapI4sortP5psortE13obj_map_entryE8obj_hashINS4_8key_dataEE10default_eqIS7_EE6removeERKS7_(ptr noundef nonnull align 8 dereferenceable(20) %m_sort2psort, ptr noundef nonnull align 8 dereferenceable(16) %ref.tmp.i.i)
  call void @llvm.lifetime.end.p0(i64 16, ptr nonnull %ref.tmp.i.i)
  br label %if.end7

if.else:                                          ; preds = %if.then
  %m_table = getelementptr inbounds i8, ptr %this, i64 56
  call void @_ZN14core_hashtableI14ptr_hash_entryI5psortE15psort_hash_proc13psort_eq_procE6removeERKPS1_(ptr noundef nonnull align 8 dereferenceable(20) %m_table, ptr noundef nonnull align 8 dereferenceable(8) %_p)
  br label %if.end7

if.end7:                                          ; preds = %if.then5, %if.else, %entry
  %vtable.i = load ptr, ptr %p, align 8
  %vfn.i = getelementptr inbounds i8, ptr %vtable.i, i64 8
  %3 = load ptr, ptr %vfn.i, align 8
  %call.i = call noundef i64 %3(ptr noundef nonnull align 8 dereferenceable(20) %p)
  %m_id.i.i = getelementptr inbounds i8, ptr %p, i64 8
  %4 = load i32, ptr %m_id.i.i, align 8
  %call.i.i = call noundef zeroext i1 @_ZN6memory16is_out_of_memoryEv()
  br i1 %call.i.i, label %_ZN13pdecl_manager13del_decl_coreEP5pdecl.exit, label %if.end.i.i

if.end.i.i:                                       ; preds = %if.end7
  %m_free_ids.i.i = getelementptr inbounds i8, ptr %this, i64 24
  %5 = load ptr, ptr %m_free_ids.i.i, align 8
  %cmp.i.i.i = icmp eq ptr %5, null
  br i1 %cmp.i.i.i, label %if.then.i.i.i, label %lor.lhs.false.i.i.i

lor.lhs.false.i.i.i:                              ; preds = %if.end.i.i
  %arrayidx.i.i.i = getelementptr inbounds i8, ptr %5, i64 -4
  %6 = load i32, ptr %arrayidx.i.i.i, align 4
  %arrayidx4.i.i.i = getelementptr inbounds i8, ptr %5, i64 -8
  %7 = load i32, ptr %arrayidx4.i.i.i, align 4
  %cmp5.i.i.i = icmp eq i32 %6, %7
  br i1 %cmp5.i.i.i, label %if.then.i.i.i, label %_ZN6vectorIjLb0EjE9push_backERKj.exit.i.i

if.then.i.i.i:                                    ; preds = %lor.lhs.false.i.i.i, %if.end.i.i
  call void @_ZN6vectorIjLb0EjE13expand_vectorEv(ptr noundef nonnull align 8 dereferenceable(8) %m_free_ids.i.i)
  %.pre.i.i.i = load ptr, ptr %m_free_ids.i.i, align 8
  %arrayidx8.phi.trans.insert.i.i.i = getelementptr inbounds i8, ptr %.pre.i.i.i, i64 -4
  %.pre1.i.i.i = load i32, ptr %arrayidx8.phi.trans.insert.i.i.i, align 4
  br label %_ZN6vectorIjLb0EjE9push_backERKj.exit.i.i

_ZN6vectorIjLb0EjE9push_backERKj.exit.i.i:        ; preds = %if.then.i.i.i, %lor.lhs.false.i.i.i
  %8 = phi i32 [ %.pre1.i.i.i, %if.then.i.i.i ], [ %6, %lor.lhs.false.i.i.i ]
  %9 = phi ptr [ %.pre.i.i.i, %if.then.i.i.i ], [ %5, %lor.lhs.false.i.i.i ]
  %idx.ext.i.i.i = zext i32 %8 to i64
  %add.ptr.i.i.i = getelementptr inbounds i32, ptr %9, i64 %idx.ext.i.i.i
  store i32 %4, ptr %add.ptr.i.i.i, align 4
  %10 = load ptr, ptr %m_free_ids.i.i, align 8
  %arrayidx10.i.i.i = getelementptr inbounds i8, ptr %10, i64 -4
  %11 = load i32, ptr %arrayidx10.i.i.i, align 4
  %inc.i.i.i = add i32 %11, 1
  store i32 %inc.i.i.i, ptr %arrayidx10.i.i.i, align 4
  br label %_ZN13pdecl_manager13del_decl_coreEP5pdecl.exit

_ZN13pdecl_manager13del_decl_coreEP5pdecl.exit:   ; preds = %if.end7, %_ZN6vectorIjLb0EjE9push_backERKj.exit.i.i
  %vtable3.i = load ptr, ptr %p, align 8
  %vfn4.i = getelementptr inbounds i8, ptr %vtable3.i, i64 16
  %12 = load ptr, ptr %vfn4.i, align 8
  call void %12(ptr noundef nonnull align 8 dereferenceable(20) %p, ptr noundef nonnull align 8 dereferenceable(192) %this)
  %vtable5.i = load ptr, ptr %p, align 8
  %vfn6.i = getelementptr inbounds i8, ptr %vtable5.i, i64 24
  %13 = load ptr, ptr %vfn6.i, align 8
  call void %13(ptr noundef nonnull align 8 dereferenceable(20) %p) #22
  %m_allocator.i = getelementptr inbounds i8, ptr %this, i64 8
  %14 = load ptr, ptr %m_allocator.i, align 8
  call void @_ZN22small_object_allocator10deallocateEmPv(ptr noundef nonnull align 8 dereferenceable(520) %14, i64 noundef %call.i, ptr noundef nonnull %p)
  ret void
}